(lp1
(i__main__
contact
p2
(dp3
S'Tel'
p4
S'18262281177'
p5
sS'Email'
p6
S'chaosjohn.yjh@gmail.com'
p7
sS'name'
p8
S'chaos'
p9
sS'cate'
p10
S'fa'
p11
sba(i__main__
contact
p12
(dp13
S'Tel'
p14
S'124'
p15
sS'cate'
p16
S'fr'
p17
sS'name'
p18
S'charlors'
p19
sS'Email'
p20
S'dhlahg@dlhga'
p21
sba(i__main__
contact
p22
(dp23
g4
S'a'
sg6
S'a'
sg8
S'sun'
p24
sg10
S'wm'
p25
sba(i__main__
contact
p26
(dp27
S'Tel'
p28
S'56351149'
p29
sS'Email'
p30
S'123@126.com'
p31
sS'name'
p32
S'wang'
p33
sS'cate'
p34
S'fa'
p35
sba.